target datalayout = "e-m:e-p270:32:32-p271:32:32-p272:64:64-i64:64-i128:128-f80:128-n8:16:32:64-S128"
target triple = "x86_64-unknown-linux-gnu"

@.str.21 = private unnamed_addr constant [49 x i8] c"%s: Unexpected error in finding subnode %.*s: %s\00", align 1
@__func__.qemu_fdt_add_path = private unnamed_addr constant [18 x i8] c"qemu_fdt_add_path\00", align 1
@.str.22 = private unnamed_addr constant [38 x i8] c"%s: Failed to create subnode %.*s: %s\00", align 1

; Function Attrs: nounwind sspstrong uwtable
define dso_local i32 @qemu_fdt_add_path(ptr noundef %fdt, ptr noundef %path) #0 {
entry:
  %retval = alloca i32, align 4
  %fdt.addr = alloca ptr, align 8
  %path.addr = alloca ptr, align 8
  %name = alloca ptr, align 8
  %namelen = alloca i32, align 4
  %retval1 = alloca i32, align 4
  %parent = alloca i32, align 4
  store ptr %fdt, ptr %fdt.addr, align 8
  store ptr %path, ptr %path.addr, align 8
  store i32 0, ptr %parent, align 4
  %0 = load ptr, ptr %path.addr, align 8
  %arrayidx = getelementptr i8, ptr %0, i64 0
  %1 = load i8, ptr %arrayidx, align 1
  %conv = sext i8 %1 to i32
  %cmp = icmp ne i32 %conv, 47
  br i1 %cmp, label %if.then, label %if.end

if.then:                                          ; preds = %entry
  store i32 -1, ptr %retval, align 4
  br label %return

if.end:                                           ; preds = %entry
  br label %do.body

do.body:                                          ; preds = %do.cond, %if.end
  %2 = load ptr, ptr %path.addr, align 8
  %add.ptr = getelementptr i8, ptr %2, i64 1
  store ptr %add.ptr, ptr %name, align 8
  %3 = load ptr, ptr %name, align 8
  %call = call ptr @strchr(ptr noundef %3, i32 noundef 47) #11
  store ptr %call, ptr %path.addr, align 8
  %4 = load ptr, ptr %path.addr, align 8
  %cmp3 = icmp ne ptr %4, null
  br i1 %cmp3, label %cond.true, label %cond.false

cond.true:                                        ; preds = %do.body
  %5 = load ptr, ptr %path.addr, align 8
  %6 = load ptr, ptr %name, align 8
  %sub.ptr.lhs.cast = ptrtoint ptr %5 to i64
  %sub.ptr.rhs.cast = ptrtoint ptr %6 to i64
  %sub.ptr.sub = sub i64 %sub.ptr.lhs.cast, %sub.ptr.rhs.cast
  br label %cond.end

cond.false:                                       ; preds = %do.body
  %7 = load ptr, ptr %name, align 8
  %call5 = call i64 @strlen(ptr noundef %7) #11
  br label %cond.end

cond.end:                                         ; preds = %cond.false, %cond.true
  %cond = phi i64 [ %sub.ptr.sub, %cond.true ], [ %call5, %cond.false ]
  %conv6 = trunc i64 %cond to i32
  store i32 %conv6, ptr %namelen, align 4
  %8 = load ptr, ptr %fdt.addr, align 8
  %9 = load i32, ptr %parent, align 4
  %10 = load ptr, ptr %name, align 8
  %11 = load i32, ptr %namelen, align 4
  %call7 = call i32 @fdt_subnode_offset_namelen(ptr noundef %8, i32 noundef %9, ptr noundef %10, i32 noundef %11)
  store i32 %call7, ptr %retval1, align 4
  %12 = load i32, ptr %retval1, align 4
  %cmp8 = icmp slt i32 %12, 0
  br i1 %cmp8, label %land.lhs.true, label %if.else

land.lhs.true:                                    ; preds = %cond.end
  %13 = load i32, ptr %retval1, align 4
  %cmp10 = icmp ne i32 %13, -1
  br i1 %cmp10, label %if.then12, label %if.else

if.then12:                                        ; preds = %land.lhs.true
  %14 = load i32, ptr %namelen, align 4
  %15 = load ptr, ptr %name, align 8
  %16 = load i32, ptr %retval1, align 4
  %call13 = call ptr @fdt_strerror(i32 noundef %16)
  call void (ptr, ...) @error_report(ptr noundef @.str.21, ptr noundef @__func__.qemu_fdt_add_path, i32 noundef %14, ptr noundef %15, ptr noundef %call13)
  call void @exit(i32 noundef 1) #10
  unreachable

if.else:                                          ; preds = %land.lhs.true, %cond.end
  %17 = load i32, ptr %retval1, align 4
  %cmp14 = icmp eq i32 %17, -1
  br i1 %cmp14, label %if.then16, label %if.end23

if.then16:                                        ; preds = %if.else
  %18 = load ptr, ptr %fdt.addr, align 8
  %19 = load i32, ptr %parent, align 4
  %20 = load ptr, ptr %name, align 8
  %21 = load i32, ptr %namelen, align 4
  %call17 = call i32 @fdt_add_subnode_namelen(ptr noundef %18, i32 noundef %19, ptr noundef %20, i32 noundef %21)
  store i32 %call17, ptr %retval1, align 4
  %22 = load i32, ptr %retval1, align 4
  %cmp18 = icmp slt i32 %22, 0
  br i1 %cmp18, label %if.then20, label %if.end22

if.then20:                                        ; preds = %if.then16
  %23 = load i32, ptr %namelen, align 4
  %24 = load ptr, ptr %name, align 8
  %25 = load i32, ptr %retval1, align 4
  %call21 = call ptr @fdt_strerror(i32 noundef %25)
  call void (ptr, ...) @error_report(ptr noundef @.str.22, ptr noundef @__func__.qemu_fdt_add_path, i32 noundef %23, ptr noundef %24, ptr noundef %call21)
  call void @exit(i32 noundef 1) #10
  unreachable

if.end22:                                         ; preds = %if.then16
  br label %if.end23

if.end23:                                         ; preds = %if.end22, %if.else
  br label %if.end24

if.end24:                                         ; preds = %if.end23
  %26 = load i32, ptr %retval1, align 4
  store i32 %26, ptr %parent, align 4
  br label %do.cond

do.cond:                                          ; preds = %if.end24
  %27 = load ptr, ptr %path.addr, align 8
  %tobool = icmp ne ptr %27, null
  br i1 %tobool, label %do.body, label %do.end, !llvm.loop !17

do.end:                                           ; preds = %do.cond
  %28 = load i32, ptr %retval1, align 4
  store i32 %28, ptr %retval, align 4
  br label %return

return:                                           ; preds = %do.end, %if.then
  %29 = load i32, ptr %retval, align 4
  ret i32 %29
}