; Function Attrs: nounwind sspstrong uwtable
define dso_local range(i32 -1, -2147483648) i32 @qemu_fdt_add_path(ptr noundef %fdt, ptr noundef %path) local_unnamed_addr #0 {
entry:
  %0 = load i8, ptr %path, align 1
  %cmp.not = icmp eq i8 %0, 47
  br i1 %cmp.not, label %do.body, label %return

do.body:                                          ; preds = %entry, %if.end24
  %path.addr.0 = phi ptr [ %call, %if.end24 ], [ %path, %entry ]
  %parent.0 = phi i32 [ %retval1.0, %if.end24 ], [ 0, %entry ]
  %add.ptr = getelementptr i8, ptr %path.addr.0, i64 1
  %call = tail call ptr @strchr(ptr noundef nonnull dereferenceable(1) %add.ptr, i32 noundef 47) #14
  %cmp3.not = icmp eq ptr %call, null
  br i1 %cmp3.not, label %cond.false, label %cond.true

cond.true:                                        ; preds = %do.body
  %sub.ptr.lhs.cast = ptrtoint ptr %call to i64
  %sub.ptr.rhs.cast = ptrtoint ptr %add.ptr to i64
  %sub.ptr.sub = sub i64 %sub.ptr.lhs.cast, %sub.ptr.rhs.cast
  br label %cond.end

cond.false:                                       ; preds = %do.body
  %call5 = tail call i64 @strlen(ptr noundef nonnull dereferenceable(1) %add.ptr) #14
  br label %cond.end

cond.end:                                         ; preds = %cond.false, %cond.true
  %cond = phi i64 [ %sub.ptr.sub, %cond.true ], [ %call5, %cond.false ]
  %conv6 = trunc i64 %cond to i32
  %call7 = tail call i32 @fdt_subnode_offset_namelen(ptr noundef %fdt, i32 noundef %parent.0, ptr noundef nonnull %add.ptr, i32 noundef %conv6) #12
  %or.cond = icmp slt i32 %call7, -1
  br i1 %or.cond, label %if.then12, label %if.else

if.then12:                                        ; preds = %cond.end
  %call13 = tail call ptr @fdt_strerror(i32 noundef %call7) #12
  tail call void (ptr, ...) @error_report(ptr noundef nonnull @.str.21, ptr noundef nonnull @__func__.qemu_fdt_add_path, i32 noundef %conv6, ptr noundef nonnull %add.ptr, ptr noundef %call13) #12
  tail call void @exit(i32 noundef 1) #13
  unreachable

if.else:                                          ; preds = %cond.end
  %cmp14 = icmp eq i32 %call7, -1
  br i1 %cmp14, label %if.then16, label %if.end24

if.then16:                                        ; preds = %if.else
  %call17 = tail call i32 @fdt_add_subnode_namelen(ptr noundef %fdt, i32 noundef %parent.0, ptr noundef nonnull %add.ptr, i32 noundef %conv6) #12
  %cmp18 = icmp slt i32 %call17, 0
  br i1 %cmp18, label %if.then20, label %if.end24

if.then20:                                        ; preds = %if.then16
  %call21 = tail call ptr @fdt_strerror(i32 noundef %call17) #12
  tail call void (ptr, ...) @error_report(ptr noundef nonnull @.str.22, ptr noundef nonnull @__func__.qemu_fdt_add_path, i32 noundef %conv6, ptr noundef nonnull %add.ptr, ptr noundef %call21) #12
  tail call void @exit(i32 noundef 1) #13
  unreachable

if.end24:                                         ; preds = %if.else, %if.then16
  %retval1.0 = phi i32 [ %call17, %if.then16 ], [ %call7, %if.else ]
  br i1 %cmp3.not, label %return, label %do.body, !llvm.loop !17

return:                                           ; preds = %if.end24, %entry
  %retval.0 = phi i32 [ -1, %entry ], [ %retval1.0, %if.end24 ]
  ret i32 %retval.0
}